target datalayout = "e-m:e-p270:32:32-p271:32:32-p272:64:64-i64:64-i128:128-f80:128-n8:16:32:64-S128"
target triple = "x86_64-pc-linux-gnu"

%struct.redisServer = type { i32, i64, ptr, ptr, ptr, i32, i32, i32, i32, i32, ptr, ptr, ptr, ptr, ptr, i32, i32, i32, i32, i64, i32, i32, i32, i32, ptr, i32, i32, [41 x i8], i32, i64, i32, i32, i32, ptr, ptr, i32, i32, i64, ptr, ptr, ptr, ptr, [2 x i32], i32, i32, i32, i32, i32, i32, [16 x ptr], i32, ptr, ptr, i32, [8 x %struct.connListener], i32, %struct.connListener, ptr, ptr, ptr, ptr, ptr, ptr, ptr, ptr, ptr, ptr, i32, ptr, i32, ptr, [3 x %struct.pause_event], [256 x i8], ptr, i64, i32, i32, [128 x i32], i32, i32, i64, i32, i32, i32, i32, i32, i64, i64, i64, i64, i64, i64, i64, i64, i64, i64, double, i64, i64, i64, i64, i64, i64, i64, i64, i64, i64, i64, i64, i64, i64, i64, i64, i64, i64, i64, i64, i64, double, i64, i64, i64, i64, i64, ptr, i64, i64, i64, %struct.malloc_stats, i64, i64, i64, i64, i64, i64, i64, i64, i64, i64, i64, i64, double, [4 x i64], i64, i64, i64, i64, [128 x i64], [128 x i64], i64, i64, [7 x %struct.anon], i64, i64, i64, i64, i64, i64, [4 x %struct.durationStats], i32, i32, i32, i32, i32, i32, i32, i32, i32, i32, i32, i32, i64, i32, i32, i32, i32, i64, i64, i32, i32, i32, i32, i32, ptr, [3 x %struct.clientBufferLimitsConfig], i32, i32, i32, ptr, i32, i32, i32, i32, i32, i32, ptr, ptr, i32, i32, i64, i64, i64, i64, i64, i32, i32, ptr, i32, i32, i64, i64, i64, i64, i64, i32, i32, i64, i32, i32, i32, i32, i32, i32, i32, i32, ptr, i32, i64, i64, i64, i64, i32, ptr, i32, ptr, i32, i32, i32, i64, i64, i64, i64, i32, i32, i32, i32, i32, i32, ptr, i32, i32, ptr, i32, i32, i32, [2 x i32], i32, %struct.redisOpArray, i32, ptr, i32, ptr, i32, i32, i32, i32, i32, i32, i32, [41 x i8], [41 x i8], i64, i64, i64, i64, i32, i32, ptr, i64, i64, %struct.replDataBuf, i64, i64, i32, i32, i32, i32, i32, i32, i32, i32, i32, i64, ptr, i64, ptr, ptr, ptr, i32, i32, ptr, ptr, i32, i32, i32, i64, i64, i64, i64, ptr, ptr, i32, ptr, i64, i32, i32, i32, i64, i32, i32, i32, i32, ptr, i32, i32, [41 x i8], i64, i32, ptr, i32, i32, i64, i64, i32, i32, i32, i32, i32, i64, [3 x i32], i32, i32, i32, [10 x i32], ptr, ptr, i32, i64, ptr, ptr, i32, i32, i32, i32, i64, i64, i64, i64, i64, i64, i64, i64, i64, i64, i32, i32, i64, i64, i32, i64, i64, i64, i64, i64, ptr, ptr, i32, ptr, i32, i32, i32, i32, i64, i64, ptr, ptr, i32, i32, i32, i32, i32, ptr, ptr, ptr, i32, i32, i32, i32, i32, i32, i32, i64, i32, i32, i64, i32, i32, i32, i32, i32, i32, i32, i64, ptr, ptr, i64, ptr, i32, %struct.aclInfo, i32, i64, i32, i32, i32, %struct.redisTLSContextConfig, ptr, ptr, ptr, ptr, ptr, i64, i32, ptr, i32, i32, i32, i64, i32, ptr }
%struct.connListener = type { [16 x i32], i32, ptr, i32, i32, ptr, ptr }
%struct.pause_event = type { i32, i64 }
%struct.malloc_stats = type { i64, i64, i64, i64, i64, i64, i64, i64, i64, i64, i64 }
%struct.anon = type { i64, i64, [16 x i64], i32 }
%struct.durationStats = type { i64, i64, i64 }
%struct.clientBufferLimitsConfig = type { i64, i64, i64 }
%struct.redisOpArray = type { ptr, i32, i32 }
%struct.replDataBuf = type { ptr, i64, i64, i64, i64 }
%struct.aclInfo = type { i64, i64, i64, i64 }
%struct.redisTLSContextConfig = type { ptr, ptr, ptr, ptr, ptr, ptr, ptr, ptr, ptr, ptr, ptr, ptr, i32, i32, i32, i32 }
%struct.client = type { i64, i64, ptr, i8, i8, i8, i8, i32, ptr, ptr, ptr, ptr, ptr, i64, i64, i32, ptr, i32, i32, ptr, i64, ptr, ptr, ptr, ptr, ptr, i32, i32, i64, ptr, i64, ptr, i64, i64, i64, i32, ptr, i64, i64, i32, i32, i32, i32, i64, i64, ptr, i64, i64, i64, i64, i64, i64, i64, i64, [41 x i8], i32, ptr, i32, i32, i64, %struct.multiState, %struct.blockingState, i64, ptr, ptr, ptr, ptr, ptr, ptr, ptr, ptr, ptr, ptr, ptr, ptr, ptr, ptr, i64, ptr, i64, i32, ptr, ptr, ptr, i64, %struct.listNode, i64, i64, i32, i64, ptr }
%struct.multiState = type { ptr, i32, i32, i32, i64, i32 }
%struct.blockingState = type { i32, i64, i32, ptr, i32, i32, i64, ptr, ptr, i64 }
%struct.listNode = type { ptr, ptr, ptr }
%struct.connection = type { ptr, i32, i32, i32, i16, i16, i16, ptr, ptr, ptr, ptr, ptr }

@server = external global %struct.redisServer, align 8
@.str.1 = private unnamed_addr constant [10 x i8] c"cluster.c\00", align 1
@.str.107 = private unnamed_addr constant [55 x i8] c"-CROSSSLOT Keys in request don't hash to the same slot\00", align 1
@.str.108 = private unnamed_addr constant [57 x i8] c"-TRYAGAIN Multiple keys request during rehashing of slot\00", align 1
@.str.109 = private unnamed_addr constant [33 x i8] c"-CLUSTERDOWN The cluster is down\00", align 1
@.str.110 = private unnamed_addr constant [64 x i8] c"-CLUSTERDOWN The cluster is down and only accepts read commands\00", align 1
@.str.111 = private unnamed_addr constant [34 x i8] c"-CLUSTERDOWN Hash slot not served\00", align 1
@.str.112 = private unnamed_addr constant [13 x i8] c"-%s %d %s:%d\00", align 1
@.str.113 = private unnamed_addr constant [4 x i8] c"ASK\00", align 1
@.str.114 = private unnamed_addr constant [6 x i8] c"MOVED\00", align 1
@.str.115 = private unnamed_addr constant [32 x i8] c"getNodeByQuery() unknown error.\00", align 1

; Function Attrs: inlinehint nounwind uwtable
define internal i32 @connIsTLS(ptr noundef %0) #5 {
  %2 = alloca ptr, align 8
  store ptr %0, ptr %2, align 8, !tbaa !90
  %3 = load ptr, ptr %2, align 8, !tbaa !90
  %4 = icmp ne ptr %3, null
  br i1 %4, label %5, label %11

5:                                                ; preds = %1
  %6 = load ptr, ptr %2, align 8, !tbaa !90
  %7 = getelementptr inbounds nuw %struct.connection, ptr %6, i32 0, i32 0
  %8 = load ptr, ptr %7, align 8, !tbaa !92
  %9 = call ptr @connectionTypeTls()
  %10 = icmp eq ptr %8, %9
  br label %11

11:                                               ; preds = %5, %1
  %12 = phi i1 [ false, %1 ], [ %10, %5 ]
  %13 = zext i1 %12 to i32
  ret i32 %13
}

; Function Attrs: nounwind uwtable
define internal i32 @shouldReturnTlsInfo() #0 {
  %1 = alloca i32, align 4
  %2 = load ptr, ptr getelementptr inbounds nuw (%struct.redisServer, ptr @server, i32 0, i32 63), align 8, !tbaa !128
  %3 = icmp ne ptr %2, null
  br i1 %3, label %4, label %14

4:                                                ; preds = %0
  %5 = load ptr, ptr getelementptr inbounds nuw (%struct.redisServer, ptr @server, i32 0, i32 63), align 8, !tbaa !128
  %6 = getelementptr inbounds nuw %struct.client, ptr %5, i32 0, i32 2
  %7 = load ptr, ptr %6, align 8, !tbaa !129
  %8 = icmp ne ptr %7, null
  br i1 %8, label %9, label %14

9:                                                ; preds = %4
  %10 = load ptr, ptr getelementptr inbounds nuw (%struct.redisServer, ptr @server, i32 0, i32 63), align 8, !tbaa !128
  %11 = getelementptr inbounds nuw %struct.client, ptr %10, i32 0, i32 2
  %12 = load ptr, ptr %11, align 8, !tbaa !129
  %13 = call i32 @connIsTLS(ptr noundef %12)
  store i32 %13, ptr %1, align 4
  br label %16

14:                                               ; preds = %4, %0
  %15 = load i32, ptr getelementptr inbounds nuw (%struct.redisServer, ptr @server, i32 0, i32 421), align 8, !tbaa !15
  store i32 %15, ptr %1, align 4
  br label %16

16:                                               ; preds = %14, %9
  %17 = load i32, ptr %1, align 4
  ret i32 %17
}

; Function Attrs: nounwind uwtable
define dso_local void @clusterRedirectClient(ptr noundef %0, ptr noundef %1, i32 noundef %2, i32 noundef %3) #0 {
  %5 = alloca ptr, align 8
  %6 = alloca ptr, align 8
  %7 = alloca i32, align 4
  %8 = alloca i32, align 4
  %9 = alloca i32, align 4
  store ptr %0, ptr %5, align 8, !tbaa !53
  store ptr %1, ptr %6, align 8, !tbaa !116
  store i32 %2, ptr %7, align 4, !tbaa !10
  store i32 %3, ptr %8, align 4, !tbaa !10
  %10 = load i32, ptr %8, align 4, !tbaa !10
  %11 = icmp eq i32 %10, 1
  br i1 %11, label %12, label %14

12:                                               ; preds = %4
  %13 = load ptr, ptr %5, align 8, !tbaa !53
  call void @addReplyError(ptr noundef %13, ptr noundef @.str.107)
  br label %60

14:                                               ; preds = %4
  %15 = load i32, ptr %8, align 4, !tbaa !10
  %16 = icmp eq i32 %15, 2
  br i1 %16, label %17, label %19

17:                                               ; preds = %14
  %18 = load ptr, ptr %5, align 8, !tbaa !53
  call void @addReplyError(ptr noundef %18, ptr noundef @.str.108)
  br label %59

19:                                               ; preds = %14
  %20 = load i32, ptr %8, align 4, !tbaa !10
  %21 = icmp eq i32 %20, 5
  br i1 %21, label %22, label %24

22:                                               ; preds = %19
  %23 = load ptr, ptr %5, align 8, !tbaa !53
  call void @addReplyError(ptr noundef %23, ptr noundef @.str.109)
  br label %58

24:                                               ; preds = %19
  %25 = load i32, ptr %8, align 4, !tbaa !10
  %26 = icmp eq i32 %25, 7
  br i1 %26, label %27, label %29

27:                                               ; preds = %24
  %28 = load ptr, ptr %5, align 8, !tbaa !53
  call void @addReplyError(ptr noundef %28, ptr noundef @.str.110)
  br label %57

29:                                               ; preds = %24
  %30 = load i32, ptr %8, align 4, !tbaa !10
  %31 = icmp eq i32 %30, 6
  br i1 %31, label %32, label %34

32:                                               ; preds = %29
  %33 = load ptr, ptr %5, align 8, !tbaa !53
  call void @addReplyError(ptr noundef %33, ptr noundef @.str.111)
  br label %56

34:                                               ; preds = %29
  %35 = load i32, ptr %8, align 4, !tbaa !10
  %36 = icmp eq i32 %35, 4
  br i1 %36, label %40, label %37

37:                                               ; preds = %34
  %38 = load i32, ptr %8, align 4, !tbaa !10
  %39 = icmp eq i32 %38, 3
  br i1 %39, label %40, label %54

40:                                               ; preds = %37, %34
  call void @llvm.lifetime.start.p0(i64 4, ptr %9) #14
  %41 = load ptr, ptr %6, align 8, !tbaa !116
  %42 = call i32 @shouldReturnTlsInfo()
  %43 = call i32 @clusterNodeClientPort(ptr noundef %41, i32 noundef %42)
  store i32 %43, ptr %9, align 4, !tbaa !10
  %44 = load ptr, ptr %5, align 8, !tbaa !53
  %45 = call ptr @sdsempty()
  %46 = load i32, ptr %8, align 4, !tbaa !10
  %47 = icmp eq i32 %46, 3
  %48 = select i1 %47, ptr @.str.113, ptr @.str.114
  %49 = load i32, ptr %7, align 4, !tbaa !10
  %50 = load ptr, ptr %6, align 8, !tbaa !116
  %51 = call ptr @clusterNodePreferredEndpoint(ptr noundef %50)
  %52 = load i32, ptr %9, align 4, !tbaa !10
  %53 = call ptr (ptr, ptr, ...) @sdscatprintf(ptr noundef %45, ptr noundef @.str.112, ptr noundef %48, i32 noundef %49, ptr noundef %51, i32 noundef %52)
  call void @addReplyErrorSds(ptr noundef %44, ptr noundef %53)
  call void @llvm.lifetime.end.p0(i64 4, ptr %9) #14
  br label %55

54:                                               ; preds = %37
  call void (ptr, i32, ptr, ...) @_serverPanic(ptr noundef @.str.1, i32 noundef 1327, ptr noundef @.str.115)
  call void @abort() #15
  unreachable

55:                                               ; preds = %40
  br label %56

56:                                               ; preds = %55, %32
  br label %57

57:                                               ; preds = %56, %27
  br label %58

58:                                               ; preds = %57, %22
  br label %59

59:                                               ; preds = %58, %17
  br label %60

60:                                               ; preds = %59, %12
  ret void
}