; Function Attrs: nounwind uwtable
define dso_local void @clusterRedirectClient(ptr noundef %0, ptr noundef %1, i32 noundef %2, i32 noundef %3) local_unnamed_addr #0 {
  switch i32 %3, label %10 [
    i32 1, label %5
    i32 2, label %6
    i32 5, label %7
    i32 7, label %8
    i32 6, label %9
  ]

5:                                                ; preds = %4
  tail call void @addReplyError(ptr noundef %0, ptr noundef nonnull @.str.107) #16
  br label %30

6:                                                ; preds = %4
  tail call void @addReplyError(ptr noundef %0, ptr noundef nonnull @.str.108) #16
  br label %30

7:                                                ; preds = %4
  tail call void @addReplyError(ptr noundef %0, ptr noundef nonnull @.str.109) #16
  br label %30

8:                                                ; preds = %4
  tail call void @addReplyError(ptr noundef %0, ptr noundef nonnull @.str.110) #16
  br label %30

9:                                                ; preds = %4
  tail call void @addReplyError(ptr noundef %0, ptr noundef nonnull @.str.111) #16
  br label %30

10:                                               ; preds = %4
  %11 = add i32 %3, -3
  %or.cond = icmp ult i32 %11, 2
  br i1 %or.cond, label %12, label %29

12:                                               ; preds = %10
  %13 = icmp eq i32 %3, 3
  %14 = load ptr, ptr getelementptr inbounds nuw (i8, ptr @server, i64 1480), align 8, !tbaa !108
  %.not.i = icmp eq ptr %14, null
  br i1 %.not.i, label %22, label %15

15:                                               ; preds = %12
  %16 = getelementptr inbounds nuw i8, ptr %14, i64 16
  %17 = load ptr, ptr %16, align 8, !tbaa !109
  %.not3.i = icmp eq ptr %17, null
  br i1 %.not3.i, label %22, label %18

18:                                               ; preds = %15
  %.val.i = load ptr, ptr %17, align 8, !tbaa !79
  %19 = tail call ptr @connectionTypeTls() #16
  %20 = icmp eq ptr %.val.i, %19
  %21 = zext i1 %20 to i32
  br label %shouldReturnTlsInfo.exit

22:                                               ; preds = %15, %12
  %23 = load i32, ptr getelementptr inbounds nuw (i8, ptr @server, i64 8160), align 8, !tbaa !10
  br label %shouldReturnTlsInfo.exit

shouldReturnTlsInfo.exit:                         ; preds = %18, %22
  %.0.i = phi i32 [ %21, %18 ], [ %23, %22 ]
  %24 = tail call i32 @clusterNodeClientPort(ptr noundef %1, i32 noundef %.0.i) #16
  %25 = tail call ptr @sdsempty() #16
  %26 = select i1 %13, ptr @.str.113, ptr @.str.114
  %27 = tail call ptr @clusterNodePreferredEndpoint(ptr noundef %1) #16
  %28 = tail call ptr (ptr, ptr, ...) @sdscatprintf(ptr noundef %25, ptr noundef nonnull @.str.112, ptr noundef nonnull %26, i32 noundef %2, ptr noundef %27, i32 noundef %24) #16
  tail call void @addReplyErrorSds(ptr noundef %0, ptr noundef %28) #16
  br label %30

29:                                               ; preds = %10
  tail call void (ptr, i32, ptr, ...) @_serverPanic(ptr noundef nonnull @.str.1, i32 noundef 1327, ptr noundef nonnull @.str.115) #16
  tail call void @abort() #17
  unreachable

30:                                               ; preds = %6, %8, %shouldReturnTlsInfo.exit, %9, %7, %5
  ret void
}